target datalayout = "e-m:e-p270:32:32-p271:32:32-p272:64:64-i64:64-i128:128-f80:128-n8:16:32:64-S128"
target triple = "x86_64-pc-linux-gnu"

%struct.strvec = type { ptr, i64, i64 }
%struct.strbuf = type { i64, i64, ptr }
%struct.stash_info = type { %struct.object_id, %struct.object_id, %struct.object_id, %struct.object_id, %struct.object_id, %struct.object_id, %struct.object_id, %struct.object_id, %struct.strbuf, i32, i32 }
%struct.object_id = type { [32 x i8], i32 }
%struct.hashmap = type { ptr, ptr, ptr, i32, i32, i32, i32, i8 }
%struct.child_process = type { %struct.strvec, %struct.strvec, i32, i32, i64, ptr, ptr, i32, i32, i32, ptr, i16, ptr }
%struct.rev_info = type { ptr, %struct.object_array, ptr, %struct.object_array, %struct.rev_cmdline_info, %struct.list_objects_filter_options, %struct.ref_exclusions, ptr, ptr, ptr, %struct.pathspec, i32, i32, i32, i32, i64, i32, i32, %struct.date_mode, i32, i32, i32, i32, ptr, i32, i32, ptr, ptr, i32, ptr, ptr, %struct.ident_split, ptr, i32, ptr, ptr, ptr, i32, i32, i32, ptr, %struct.grep_opt, ptr, i32, i32, i64, i64, i64, i32, i32, ptr, ptr, ptr, %struct.diff_options, %struct.diff_options, ptr, %struct.decoration, %struct.decoration, %struct.decoration, %struct.display_notes_opt, ptr, ptr, ptr, ptr, ptr, i32, ptr, i32, i32, i32, %struct.decoration, ptr, ptr, ptr, ptr, ptr, ptr, ptr, i32, ptr, i32, ptr, %struct.oidset }
%struct.object_array = type { i32, i32, ptr }
%struct.rev_cmdline_info = type { i32, i32, ptr }
%struct.list_objects_filter_options = type { %struct.strbuf, i32, i8, ptr, i64, i64, i32, i64, i64, ptr }
%struct.ref_exclusions = type { %struct.string_list, %struct.strvec, i8 }
%struct.string_list = type { ptr, i64, i64, i8, ptr }
%struct.pathspec = type { i32, i8, i32, i32, ptr }
%struct.date_mode = type { i32, i32, ptr }
%struct.ident_split = type { ptr, ptr, ptr, ptr, ptr, ptr, ptr, ptr }
%struct.grep_opt = type { ptr, ptr, ptr, ptr, ptr, ptr, i32, i32, i32, i32, i32, i32, i32, i32, i32, i32, i32, i32, i32, i32, i32, i32, i32, i32, i32, i32, i32, i32, i32, i32, i32, i32, [9 x [75 x i8]], i32, i32, i32, i32, i32, i32, i32, ptr, ptr, ptr }
%struct.diff_options = type { ptr, ptr, i32, i32, ptr, i32, ptr, i64, i64, ptr, ptr, ptr, ptr, %struct.diff_flags, i32, i32, i32, i32, i32, i32, i32, i32, i32, i32, i32, i32, i32, i32, i32, i32, i32, i32, i32, i32, i32, i32, ptr, i32, ptr, i32, i32, ptr, i64, i64, i32, i32, i32, i32, ptr, i32, i32, ptr, i32, i32, ptr, ptr, i32, [3 x i8], %struct.pathspec, ptr, ptr, ptr, ptr, ptr, ptr, ptr, ptr, i32, ptr, i32, i32, ptr, ptr, i32 }
%struct.diff_flags = type { i32, i32, i32, i32, i32, i32, i32, i32, i32, i32, i32, i32, i32, i32, i32, i32, i32, i32, i32, i32, i32, i32, i32, i32, i32, i32, i32, i32, i32, i32, i32, i32, i32, i32, i32 }
%struct.display_notes_opt = type { i32, %struct.string_list }
%struct.decoration = type { ptr, i32, i32, ptr }
%struct.oidset = type { %struct.kh_oid_set }
%struct.kh_oid_set = type { i32, i32, i32, i32, ptr, ptr, ptr }
%struct.index_state = type { ptr, i32, i32, i32, i32, ptr, ptr, ptr, %struct.cache_time, i8, i32, %struct.hashmap, %struct.hashmap, %struct.object_id, ptr, ptr, ptr, ptr, ptr, ptr, ptr }
%struct.cache_time = type { i32, i32 }

@the_repository = external global ptr, align 8
@stash_index_path = internal global %struct.strbuf { i64 0, i64 0, ptr @strbuf_slopbuf }, align 8
@.str.25 = private unnamed_addr constant [1 x i8] zeroinitializer, align 1
@.str.58 = private unnamed_addr constant [18 x i8] c"GIT_INDEX_FILE=%s\00", align 1
@.str.109 = private unnamed_addr constant [13 x i8] c"update-index\00", align 1
@.str.110 = private unnamed_addr constant [3 x i8] c"-z\00", align 1
@.str.111 = private unnamed_addr constant [6 x i8] c"--add\00", align 1
@.str.112 = private unnamed_addr constant [9 x i8] c"--remove\00", align 1
@.str.113 = private unnamed_addr constant [8 x i8] c"--stdin\00", align 1
@__const.stash_working_tree.diff_output = private unnamed_addr constant %struct.strbuf { i64 0, i64 0, ptr @strbuf_slopbuf }, align 8
@.str.120 = private unnamed_addr constant [31 x i8] c"--ignore-skip-worktree-entries\00", align 1

; Function Attrs: nounwind uwtable
define internal i32 @stash_working_tree(ptr noundef %0, ptr noundef %1) #0 {
  %3 = alloca ptr, align 8
  %4 = alloca ptr, align 8
  %5 = alloca i32, align 4
  %6 = alloca %struct.rev_info, align 8
  %7 = alloca %struct.child_process, align 8
  %8 = alloca %struct.strbuf, align 8
  %9 = alloca %struct.index_state, align 8
  store ptr %0, ptr %3, align 8, !tbaa !109
  store ptr %1, ptr %4, align 8, !tbaa !189
  call void @llvm.lifetime.start.p0(i64 4, ptr %5) #9
  store i32 0, ptr %5, align 4, !tbaa !4
  call void @llvm.lifetime.start.p0(i64 3008, ptr %6) #9
  call void @llvm.lifetime.start.p0(i64 120, ptr %7) #9
  call void @llvm.memcpy.p0.p0.i64(ptr align 8 %7, ptr align 8 @__const.stash_working_tree.cp_upd_index, i64 120, i1 false)
  call void @llvm.lifetime.start.p0(i64 24, ptr %8) #9
  call void @llvm.memcpy.p0.p0.i64(ptr align 8 %8, ptr align 8 @__const.stash_working_tree.diff_output, i64 24, i1 false)
  call void @llvm.lifetime.start.p0(i64 256, ptr %9) #9
  call void @llvm.memset.p0.i64(ptr align 8 %9, i8 0, i64 256, i1 false)
  %10 = getelementptr inbounds nuw %struct.index_state, ptr %9, i32 0, i32 19
  %11 = load ptr, ptr @the_repository, align 8, !tbaa !13
  store ptr %11, ptr %10, align 8, !tbaa !197
  %12 = load ptr, ptr @the_repository, align 8, !tbaa !13
  call void @repo_init_revisions(ptr noundef %12, ptr noundef %6, ptr noundef null)
  %13 = getelementptr inbounds nuw %struct.rev_info, ptr %6, i32 0, i32 10
  %14 = load ptr, ptr %4, align 8, !tbaa !189
  call void @copy_pathspec(ptr noundef %13, ptr noundef %14)
  %15 = load ptr, ptr getelementptr inbounds nuw (%struct.strbuf, ptr @stash_index_path, i32 0, i32 2), align 8, !tbaa !112
  call void @set_alternate_index_output(ptr noundef %15)
  %16 = load ptr, ptr %3, align 8, !tbaa !109
  %17 = getelementptr inbounds nuw %struct.stash_info, ptr %16, i32 0, i32 6
  %18 = call i32 @reset_tree(ptr noundef %17, i32 noundef 0, i32 noundef 0)
  %19 = icmp ne i32 %18, 0
  br i1 %19, label %20, label %21

20:                                               ; preds = %2
  store i32 -1, ptr %5, align 4, !tbaa !4
  br label %62

21:                                               ; preds = %2
  call void @set_alternate_index_output(ptr noundef null)
  %22 = getelementptr inbounds nuw %struct.rev_info, ptr %6, i32 0, i32 53
  %23 = getelementptr inbounds nuw %struct.diff_options, ptr %22, i32 0, i32 24
  store i32 4096, ptr %23, align 4, !tbaa !61
  %24 = getelementptr inbounds nuw %struct.rev_info, ptr %6, i32 0, i32 53
  %25 = getelementptr inbounds nuw %struct.diff_options, ptr %24, i32 0, i32 63
  store ptr @add_diff_to_buf, ptr %25, align 8, !tbaa !199
  %26 = getelementptr inbounds nuw %struct.rev_info, ptr %6, i32 0, i32 53
  %27 = getelementptr inbounds nuw %struct.diff_options, ptr %26, i32 0, i32 64
  store ptr %8, ptr %27, align 8, !tbaa !200
  %28 = load ptr, ptr @the_repository, align 8, !tbaa !13
  %29 = getelementptr inbounds nuw %struct.rev_info, ptr %6, i32 0, i32 53
  %30 = getelementptr inbounds nuw %struct.diff_options, ptr %29, i32 0, i32 58
  %31 = call i32 @repo_read_index_preload(ptr noundef %28, ptr noundef %30, i32 noundef 0)
  %32 = icmp slt i32 %31, 0
  br i1 %32, label %33, label %34

33:                                               ; preds = %21
  store i32 -1, ptr %5, align 4, !tbaa !4
  br label %62

34:                                               ; preds = %21
  %35 = load ptr, ptr @the_repository, align 8, !tbaa !13
  %36 = load ptr, ptr %3, align 8, !tbaa !109
  %37 = getelementptr inbounds nuw %struct.stash_info, ptr %36, i32 0, i32 1
  %38 = call ptr @parse_object(ptr noundef %35, ptr noundef %37)
  call void @add_pending_object(ptr noundef %6, ptr noundef %38, ptr noundef @.str.25)
  call void @run_diff_index(ptr noundef %6, i32 noundef 0)
  %39 = getelementptr inbounds nuw %struct.child_process, ptr %7, i32 0, i32 11
  %40 = load i16, ptr %39, align 8
  %41 = and i16 %40, -9
  %42 = or i16 %41, 8
  store i16 %42, ptr %39, align 8
  %43 = getelementptr inbounds nuw %struct.child_process, ptr %7, i32 0, i32 0
  call void (ptr, ...) @strvec_pushl(ptr noundef %43, ptr noundef @.str.109, ptr noundef @.str.120, ptr noundef @.str.110, ptr noundef @.str.111, ptr noundef @.str.112, ptr noundef @.str.113, ptr noundef null)
  %44 = getelementptr inbounds nuw %struct.child_process, ptr %7, i32 0, i32 1
  %45 = load ptr, ptr getelementptr inbounds nuw (%struct.strbuf, ptr @stash_index_path, i32 0, i32 2), align 8, !tbaa !112
  %46 = call ptr (ptr, ptr, ...) @strvec_pushf(ptr noundef %44, ptr noundef @.str.58, ptr noundef %45)
  %47 = getelementptr inbounds nuw %struct.strbuf, ptr %8, i32 0, i32 2
  %48 = load ptr, ptr %47, align 8, !tbaa !112
  %49 = getelementptr inbounds nuw %struct.strbuf, ptr %8, i32 0, i32 1
  %50 = load i64, ptr %49, align 8, !tbaa !114
  %51 = call i32 @pipe_command(ptr noundef %7, ptr noundef %48, i64 noundef %50, ptr noundef null, i64 noundef 0, ptr noundef null, i64 noundef 0)
  %52 = icmp ne i32 %51, 0
  br i1 %52, label %53, label %54

53:                                               ; preds = %34
  store i32 -1, ptr %5, align 4, !tbaa !4
  br label %62

54:                                               ; preds = %34
  %55 = load ptr, ptr %3, align 8, !tbaa !109
  %56 = getelementptr inbounds nuw %struct.stash_info, ptr %55, i32 0, i32 4
  %57 = load ptr, ptr getelementptr inbounds nuw (%struct.strbuf, ptr @stash_index_path, i32 0, i32 2), align 8, !tbaa !112
  %58 = call i32 @write_index_as_tree(ptr noundef %56, ptr noundef %9, ptr noundef %57, i32 noundef 0, ptr noundef null)
  %59 = icmp ne i32 %58, 0
  br i1 %59, label %60, label %61

60:                                               ; preds = %54
  store i32 -1, ptr %5, align 4, !tbaa !4
  br label %62

61:                                               ; preds = %54
  br label %62

62:                                               ; preds = %61, %60, %53, %33, %20
  call void @release_index(ptr noundef %9)
  call void @release_revisions(ptr noundef %6)
  call void @strbuf_release(ptr noundef %8)
  %63 = load ptr, ptr getelementptr inbounds nuw (%struct.strbuf, ptr @stash_index_path, i32 0, i32 2), align 8, !tbaa !112
  %64 = call i32 @remove_path(ptr noundef %63)
  %65 = load i32, ptr %5, align 4, !tbaa !4
  call void @llvm.lifetime.end.p0(i64 256, ptr %9) #9
  call void @llvm.lifetime.end.p0(i64 24, ptr %8) #9
  call void @llvm.lifetime.end.p0(i64 120, ptr %7) #9
  call void @llvm.lifetime.end.p0(i64 3008, ptr %6) #9
  call void @llvm.lifetime.end.p0(i64 4, ptr %5) #9
  ret i32 %65
}