; Function Attrs: nounwind uwtable
define internal fastcc range(i32 -1, 1) i32 @stash_working_tree(ptr noundef nonnull %0, ptr noundef nonnull %1) unnamed_addr #0 {
  %3 = alloca %struct.rev_info, align 8
  %4 = alloca %struct.child_process, align 8
  %5 = alloca %struct.strbuf, align 8
  %6 = alloca %struct.index_state, align 8
  call void @llvm.lifetime.start.p0(i64 3008, ptr nonnull %3) #15
  call void @llvm.lifetime.start.p0(i64 120, ptr nonnull %4) #15
  call void @llvm.memcpy.p0.p0.i64(ptr noundef nonnull align 8 dereferenceable(120) %4, ptr noundef nonnull align 8 dereferenceable(120) @__const.do_push_stash.cp.159, i64 120, i1 false)
  call void @llvm.lifetime.start.p0(i64 24, ptr nonnull %5) #15
  call void @llvm.memcpy.p0.p0.i64(ptr noundef nonnull align 8 dereferenceable(24) %5, ptr noundef nonnull align 8 dereferenceable(24) @__const.do_push_stash.out, i64 24, i1 false)
  call void @llvm.lifetime.start.p0(i64 256, ptr nonnull %6) #15
  call void @llvm.memset.p0.i64(ptr noundef nonnull align 8 dereferenceable(256) %6, i8 0, i64 256, i1 false)
  %7 = getelementptr inbounds nuw i8, ptr %6, i64 240
  %8 = load ptr, ptr @the_repository, align 8, !tbaa !18
  store ptr %8, ptr %7, align 8, !tbaa !186
  call void @repo_init_revisions(ptr noundef %8, ptr noundef nonnull %3, ptr noundef null) #15
  %9 = getelementptr inbounds nuw i8, ptr %3, i64 248
  call void @copy_pathspec(ptr noundef nonnull %9, ptr noundef nonnull %1) #15
  %10 = load ptr, ptr getelementptr inbounds nuw (i8, ptr @stash_index_path, i64 16), align 8, !tbaa !131
  call void @set_alternate_index_output(ptr noundef %10) #15
  %11 = getelementptr inbounds nuw i8, ptr %0, i64 216
  %12 = call fastcc i32 @reset_tree(ptr noundef %11)
  %.not = icmp eq i32 %12, 0
  br i1 %.not, label %13, label %38

13:                                               ; preds = %2
  call void @set_alternate_index_output(ptr noundef null) #15
  %14 = getelementptr inbounds nuw i8, ptr %3, i64 1748
  store i32 4096, ptr %14, align 4, !tbaa !58
  %15 = getelementptr inbounds nuw i8, ptr %3, i64 1984
  store ptr @add_diff_to_buf, ptr %15, align 8, !tbaa !188
  %16 = getelementptr inbounds nuw i8, ptr %3, i64 1992
  store ptr %5, ptr %16, align 8, !tbaa !189
  %17 = load ptr, ptr @the_repository, align 8, !tbaa !18
  %18 = getelementptr inbounds nuw i8, ptr %3, i64 1928
  %19 = call i32 @repo_read_index_preload(ptr noundef %17, ptr noundef nonnull %18, i32 noundef 0) #15
  %20 = icmp slt i32 %19, 0
  br i1 %20, label %38, label %21

21:                                               ; preds = %13
  %22 = load ptr, ptr @the_repository, align 8, !tbaa !18
  %23 = getelementptr inbounds nuw i8, ptr %0, i64 36
  %24 = call ptr @parse_object(ptr noundef %22, ptr noundef nonnull %23) #15
  call void @add_pending_object(ptr noundef nonnull %3, ptr noundef %24, ptr noundef nonnull @.str.25) #15
  call void @run_diff_index(ptr noundef nonnull %3, i32 noundef 0) #15
  %25 = getelementptr inbounds nuw i8, ptr %4, i64 104
  store i16 8, ptr %25, align 8
  call void (ptr, ...) @strvec_pushl(ptr noundef nonnull %4, ptr noundef nonnull @.str.109, ptr noundef nonnull @.str.120, ptr noundef nonnull @.str.110, ptr noundef nonnull @.str.111, ptr noundef nonnull @.str.112, ptr noundef nonnull @.str.113, ptr noundef null) #15
  %26 = getelementptr inbounds nuw i8, ptr %4, i64 24
  %27 = load ptr, ptr getelementptr inbounds nuw (i8, ptr @stash_index_path, i64 16), align 8, !tbaa !131
  %28 = call ptr (ptr, ptr, ...) @strvec_pushf(ptr noundef nonnull %26, ptr noundef nonnull @.str.58, ptr noundef %27) #15
  %29 = getelementptr inbounds nuw i8, ptr %5, i64 16
  %30 = load ptr, ptr %29, align 8, !tbaa !131
  %31 = getelementptr inbounds nuw i8, ptr %5, i64 8
  %32 = load i64, ptr %31, align 8, !tbaa !132
  %33 = call i32 @pipe_command(ptr noundef nonnull %4, ptr noundef %30, i64 noundef %32, ptr noundef null, i64 noundef 0, ptr noundef null, i64 noundef 0) #15
  %.not4 = icmp eq i32 %33, 0
  br i1 %.not4, label %34, label %38

34:                                               ; preds = %21
  %35 = getelementptr inbounds nuw i8, ptr %0, i64 144
  %36 = load ptr, ptr getelementptr inbounds nuw (i8, ptr @stash_index_path, i64 16), align 8, !tbaa !131
  %37 = call i32 @write_index_as_tree(ptr noundef nonnull %35, ptr noundef nonnull %6, ptr noundef %36, i32 noundef 0, ptr noundef null) #15
  %.not5 = icmp ne i32 %37, 0
  %spec.select = sext i1 %.not5 to i32
  br label %38

38:                                               ; preds = %34, %21, %13, %2
  %.0 = phi i32 [ -1, %2 ], [ -1, %13 ], [ -1, %21 ], [ %spec.select, %34 ]
  call void @release_index(ptr noundef nonnull %6) #15
  call void @release_revisions(ptr noundef nonnull %3) #15
  call void @strbuf_release(ptr noundef nonnull %5) #15
  %39 = load ptr, ptr getelementptr inbounds nuw (i8, ptr @stash_index_path, i64 16), align 8, !tbaa !131
  %40 = call i32 @remove_path(ptr noundef %39) #15
  call void @llvm.lifetime.end.p0(i64 256, ptr nonnull %6) #15
  call void @llvm.lifetime.end.p0(i64 24, ptr nonnull %5) #15
  call void @llvm.lifetime.end.p0(i64 120, ptr nonnull %4) #15
  call void @llvm.lifetime.end.p0(i64 3008, ptr nonnull %3) #15
  ret i32 %.0
}